target datalayout = "e-m:e-p270:32:32-p271:32:32-p272:64:64-i64:64-i128:128-f80:128-n8:16:32:64-S128"
target triple = "x86_64-pc-linux-gnu"

%struct._zend_executor_globals = type { %struct._zval_struct, %struct._zval_struct, [32 x ptr], ptr, ptr, %struct._zend_array, %struct._zend_array, ptr, i32, i32, ptr, ptr, ptr, ptr, ptr, ptr, i64, ptr, ptr, i32, i32, i64, i32, i32, i32, i8, i8, %struct.zend_atomic_bool_s, %struct.zend_atomic_bool_s, ptr, i64, ptr, ptr, %struct._zend_array, %struct._zend_array, i32, i8, %struct._zval_struct, %struct._zval_struct, %struct._zend_stack, %struct._zend_stack, %struct._zend_stack, ptr, i32, i32, i64, ptr, ptr, ptr, %struct._zend_objects_store, ptr, ptr, ptr, [3 x %struct._zend_op], ptr, i8, i8, i64, i32, i32, ptr, [16 x %struct._HashTableIterator], ptr, %union._zend_function, %struct._zend_op, %struct._zend_array, i64, %struct.zend_get_gc_buffer, ptr, ptr, ptr, i64, i8, i32, ptr, ptr, i64, %struct._zend_call_stack, i64, i64, [6 x ptr] }
%struct.zend_atomic_bool_s = type { i8 }
%struct._zval_struct = type { %union._zend_value, %union.anon, %union.anon.3 }
%union._zend_value = type { i64 }
%union.anon = type { i32 }
%union.anon.3 = type { i32 }
%struct._zend_stack = type { i32, i32, i32, ptr }
%struct._zend_objects_store = type { ptr, i32, i32, i32 }
%struct._HashTableIterator = type { ptr, i32, i32 }
%union._zend_function = type { %struct._zend_op_array }
%struct._zend_op_array = type { i8, [3 x i8], i32, ptr, ptr, ptr, i32, i32, ptr, ptr, ptr, ptr, i32, i32, i32, i32, ptr, ptr, ptr, ptr, ptr, i32, i32, ptr, ptr, ptr, i32, i32, i32, i32, ptr, ptr, [6 x ptr] }
%struct._zend_op = type { ptr, %union._znode_op, %union._znode_op, %union._znode_op, i32, i32, i8, i8, i8, i8 }
%union._znode_op = type { i32 }
%struct._zend_array = type { %struct._zend_refcounted_h, %union.anon.5, i32, %union.anon.7, i32, i32, i32, i32, i64, ptr }
%struct._zend_refcounted_h = type { i32, %union.anon.4 }
%union.anon.4 = type { i32 }
%union.anon.5 = type { i32 }
%union.anon.7 = type { ptr }
%struct.zend_get_gc_buffer = type { ptr, ptr, ptr }
%struct._zend_call_stack = type { ptr, i64 }
%struct.zend_type = type { ptr, i32 }
%struct._zend_class_entry = type { i8, ptr, %union.anon.8, i32, i32, i32, i32, ptr, ptr, ptr, %struct._zend_array, %struct._zend_array, %struct._zend_array, ptr, ptr, ptr, ptr, ptr, ptr, ptr, ptr, ptr, ptr, ptr, ptr, ptr, ptr, ptr, ptr, ptr, ptr, ptr, %union.anon.9, ptr, ptr, ptr, ptr, i32, i32, %union.anon.10, ptr, ptr, ptr, ptr, i32, ptr, ptr, %union.anon.11 }
%union.anon.8 = type { ptr }
%union.anon.9 = type { ptr }
%union.anon.10 = type { ptr }
%union.anon.11 = type { %struct.anon.12 }
%struct.anon.12 = type { ptr, i32, i32 }
%struct._zend_property_info = type { i32, i32, ptr, ptr, ptr, ptr, %struct.zend_type }

@executor_globals = external global %struct._zend_executor_globals, align 8

; Function Attrs: nounwind uwtable
define internal ptr @lookup_prop_info(ptr noundef %0, ptr noundef %1, ptr noundef %2) #0 {
  %4 = alloca ptr, align 8
  %5 = alloca ptr, align 8
  %6 = alloca ptr, align 8
  %7 = alloca ptr, align 8
  %8 = alloca ptr, align 8
  %9 = alloca ptr, align 8
  %10 = alloca ptr, align 8
  %11 = alloca ptr, align 8
  %12 = alloca ptr, align 8
  %13 = alloca ptr, align 8
  store ptr %0, ptr %9, align 8
  store ptr %1, ptr %10, align 8
  store ptr %2, ptr %11, align 8
  %14 = load ptr, ptr %9, align 8
  %15 = getelementptr inbounds %struct._zend_class_entry, ptr %14, i32 0, i32 4
  %16 = load i32, ptr %15, align 4
  %17 = and i32 %16, 8
  %18 = icmp ne i32 %17, 0
  br i1 %18, label %19, label %43

19:                                               ; preds = %3
  %20 = load ptr, ptr %11, align 8
  %21 = icmp ne ptr %20, null
  br i1 %21, label %22, label %28

22:                                               ; preds = %19
  %23 = load ptr, ptr %11, align 8
  %24 = getelementptr inbounds %struct._zend_class_entry, ptr %23, i32 0, i32 4
  %25 = load i32, ptr %24, align 4
  %26 = and i32 %25, 8
  %27 = icmp ne i32 %26, 0
  br i1 %27, label %28, label %43

28:                                               ; preds = %22, %19
  %29 = load ptr, ptr getelementptr inbounds (%struct._zend_executor_globals, ptr @executor_globals, i32 0, i32 18), align 8
  store ptr %29, ptr %13, align 8
  %30 = load ptr, ptr %11, align 8
  store ptr %30, ptr getelementptr inbounds (%struct._zend_executor_globals, ptr @executor_globals, i32 0, i32 18), align 8
  %31 = load ptr, ptr %9, align 8
  %32 = load ptr, ptr %10, align 8
  %33 = call ptr @zend_get_property_info(ptr noundef %31, ptr noundef %32, i32 noundef 1)
  store ptr %33, ptr %12, align 8
  %34 = load ptr, ptr %13, align 8
  store ptr %34, ptr getelementptr inbounds (%struct._zend_executor_globals, ptr @executor_globals, i32 0, i32 18), align 8
  %35 = load ptr, ptr %12, align 8
  %36 = icmp ne ptr %35, null
  br i1 %36, label %37, label %42

37:                                               ; preds = %28
  %38 = load ptr, ptr %12, align 8
  %39 = icmp ne ptr %38, inttoptr (i64 -1 to ptr)
  br i1 %39, label %40, label %42

40:                                               ; preds = %37
  %41 = load ptr, ptr %12, align 8
  store ptr %41, ptr %8, align 8
  br label %81

42:                                               ; preds = %37, %28
  store ptr null, ptr %8, align 8
  br label %81

43:                                               ; preds = %22, %3
  %44 = load ptr, ptr %9, align 8
  %45 = getelementptr inbounds %struct._zend_class_entry, ptr %44, i32 0, i32 11
  %46 = load ptr, ptr %10, align 8
  store ptr %45, ptr %5, align 8
  store ptr %46, ptr %6, align 8
  %47 = load ptr, ptr %5, align 8
  %48 = load ptr, ptr %6, align 8
  %49 = call ptr @zend_hash_find(ptr noundef %47, ptr noundef %48) #11
  store ptr %49, ptr %7, align 8
  %50 = load ptr, ptr %7, align 8
  %51 = icmp ne ptr %50, null
  br i1 %51, label %52, label %58

52:                                               ; preds = %43
  %53 = load ptr, ptr %7, align 8
  %54 = load ptr, ptr %53, align 8
  %55 = icmp ne ptr %54, null
  call void @llvm.assume(i1 %55)
  %56 = load ptr, ptr %7, align 8
  %57 = load ptr, ptr %56, align 8
  store ptr %57, ptr %4, align 8
  br label %59

58:                                               ; preds = %43
  store ptr null, ptr %4, align 8
  br label %59

59:                                               ; preds = %58, %52
  %60 = load ptr, ptr %4, align 8
  store ptr %60, ptr %12, align 8
  %61 = load ptr, ptr %12, align 8
  %62 = icmp ne ptr %61, null
  br i1 %62, label %63, label %80

63:                                               ; preds = %59
  %64 = load ptr, ptr %12, align 8
  %65 = getelementptr inbounds %struct._zend_property_info, ptr %64, i32 0, i32 5
  %66 = load ptr, ptr %65, align 8
  %67 = load ptr, ptr %11, align 8
  %68 = icmp eq ptr %66, %67
  br i1 %68, label %78, label %69

69:                                               ; preds = %63
  %70 = load ptr, ptr %11, align 8
  %71 = icmp ne ptr %70, null
  br i1 %71, label %80, label %72

72:                                               ; preds = %69
  %73 = load ptr, ptr %12, align 8
  %74 = getelementptr inbounds %struct._zend_property_info, ptr %73, i32 0, i32 1
  %75 = load i32, ptr %74, align 4
  %76 = and i32 %75, 1
  %77 = icmp ne i32 %76, 0
  br i1 %77, label %78, label %80

78:                                               ; preds = %72, %63
  %79 = load ptr, ptr %12, align 8
  store ptr %79, ptr %8, align 8
  br label %81

80:                                               ; preds = %72, %69, %59
  store ptr null, ptr %8, align 8
  br label %81

81:                                               ; preds = %80, %78, %42, %40
  %82 = load ptr, ptr %8, align 8
  ret ptr %82
}

; Function Attrs: nounwind uwtable
define internal ptr @zend_fetch_static_prop_info(ptr noundef %0, ptr noundef %1, ptr noundef %2, ptr noundef %3) #0 {
  %5 = alloca ptr, align 8
  %6 = alloca ptr, align 8
  %7 = alloca ptr, align 8
  %8 = alloca ptr, align 8
  %9 = alloca ptr, align 8
  %10 = alloca ptr, align 8
  %11 = alloca i32, align 4
  %12 = alloca ptr, align 8
  %13 = alloca ptr, align 8
  store ptr %0, ptr %5, align 8
  store ptr %1, ptr %6, align 8
  store ptr %2, ptr %7, align 8
  store ptr %3, ptr %8, align 8
  store ptr null, ptr %9, align 8
  %14 = load ptr, ptr %8, align 8
  %15 = getelementptr inbounds %struct._zend_op, ptr %14, i32 0, i32 7
  %16 = load i8, ptr %15, align 1
  %17 = zext i8 %16 to i32
  %18 = icmp eq i32 %17, 1
  br i1 %18, label %19, label %140

19:                                               ; preds = %4
  store ptr null, ptr %10, align 8
  %20 = load ptr, ptr %8, align 8
  %21 = getelementptr inbounds %struct._zend_op, ptr %20, i32 0, i32 8
  %22 = load i8, ptr %21, align 2
  %23 = zext i8 %22 to i32
  %24 = icmp eq i32 %23, 0
  br i1 %24, label %25, label %56

25:                                               ; preds = %19
  %26 = load ptr, ptr %8, align 8
  %27 = getelementptr inbounds %struct._zend_op, ptr %26, i32 0, i32 2
  %28 = load i32, ptr %27, align 4
  %29 = and i32 %28, 15
  store i32 %29, ptr %11, align 4
  %30 = load i32, ptr %11, align 4
  switch i32 %30, label %55 [
    i32 1, label %31
    i32 3, label %31
    i32 2, label %35
  ]

31:                                               ; preds = %25, %25
  %32 = load ptr, ptr %6, align 8
  %33 = getelementptr inbounds %struct._zend_op_array, ptr %32, i32 0, i32 4
  %34 = load ptr, ptr %33, align 8
  store ptr %34, ptr %10, align 8
  br label %55

35:                                               ; preds = %25
  %36 = load ptr, ptr %6, align 8
  %37 = getelementptr inbounds %struct._zend_op_array, ptr %36, i32 0, i32 4
  %38 = load ptr, ptr %37, align 8
  %39 = icmp ne ptr %38, null
  br i1 %39, label %40, label %54

40:                                               ; preds = %35
  %41 = load ptr, ptr %6, align 8
  %42 = getelementptr inbounds %struct._zend_op_array, ptr %41, i32 0, i32 4
  %43 = load ptr, ptr %42, align 8
  %44 = getelementptr inbounds %struct._zend_class_entry, ptr %43, i32 0, i32 4
  %45 = load i32, ptr %44, align 4
  %46 = and i32 %45, 8
  %47 = icmp ne i32 %46, 0
  br i1 %47, label %48, label %54

48:                                               ; preds = %40
  %49 = load ptr, ptr %6, align 8
  %50 = getelementptr inbounds %struct._zend_op_array, ptr %49, i32 0, i32 4
  %51 = load ptr, ptr %50, align 8
  %52 = getelementptr inbounds %struct._zend_class_entry, ptr %51, i32 0, i32 2
  %53 = load ptr, ptr %52, align 8
  store ptr %53, ptr %10, align 8
  br label %54

54:                                               ; preds = %48, %40, %35
  br label %55

55:                                               ; preds = %54, %31, %25
  br label %94

56:                                               ; preds = %19
  %57 = load ptr, ptr %8, align 8
  %58 = getelementptr inbounds %struct._zend_op, ptr %57, i32 0, i32 8
  %59 = load i8, ptr %58, align 2
  %60 = zext i8 %59 to i32
  %61 = icmp eq i32 %60, 1
  br i1 %61, label %62, label %93

62:                                               ; preds = %56
  %63 = load ptr, ptr %6, align 8
  %64 = getelementptr inbounds %struct._zend_op_array, ptr %63, i32 0, i32 2
  %65 = load i32, ptr %64, align 4
  %66 = and i32 %65, 33554432
  %67 = icmp ne i32 %66, 0
  br i1 %67, label %68, label %75

68:                                               ; preds = %62
  %69 = load ptr, ptr %8, align 8
  %70 = load ptr, ptr %8, align 8
  %71 = getelementptr inbounds %struct._zend_op, ptr %70, i32 0, i32 2
  %72 = load i32, ptr %71, align 4
  %73 = sext i32 %72 to i64
  %74 = getelementptr inbounds i8, ptr %69, i64 %73
  br label %84

75:                                               ; preds = %62
  %76 = load ptr, ptr %6, align 8
  %77 = getelementptr inbounds %struct._zend_op_array, ptr %76, i32 0, i32 30
  %78 = load ptr, ptr %77, align 8
  %79 = load ptr, ptr %8, align 8
  %80 = getelementptr inbounds %struct._zend_op, ptr %79, i32 0, i32 2
  %81 = load i32, ptr %80, align 4
  %82 = zext i32 %81 to i64
  %83 = getelementptr inbounds %struct._zval_struct, ptr %78, i64 %82
  br label %84

84:                                               ; preds = %75, %68
  %85 = phi ptr [ %74, %68 ], [ %83, %75 ]
  store ptr %85, ptr %12, align 8
  %86 = load ptr, ptr %5, align 8
  %87 = load ptr, ptr %6, align 8
  %88 = load ptr, ptr %12, align 8
  %89 = getelementptr inbounds %struct._zval_struct, ptr %88, i64 1
  %90 = getelementptr inbounds %struct._zval_struct, ptr %89, i32 0, i32 0
  %91 = load ptr, ptr %90, align 8
  %92 = call ptr @zend_optimizer_get_class_entry(ptr noundef %86, ptr noundef %87, ptr noundef %91)
  store ptr %92, ptr %10, align 8
  br label %93

93:                                               ; preds = %84, %56
  br label %94

94:                                               ; preds = %93, %55
  %95 = load ptr, ptr %10, align 8
  %96 = icmp ne ptr %95, null
  br i1 %96, label %97, label %139

97:                                               ; preds = %94
  %98 = load ptr, ptr %6, align 8
  %99 = getelementptr inbounds %struct._zend_op_array, ptr %98, i32 0, i32 2
  %100 = load i32, ptr %99, align 4
  %101 = and i32 %100, 33554432
  %102 = icmp ne i32 %101, 0
  br i1 %102, label %103, label %110

103:                                              ; preds = %97
  %104 = load ptr, ptr %8, align 8
  %105 = load ptr, ptr %8, align 8
  %106 = getelementptr inbounds %struct._zend_op, ptr %105, i32 0, i32 1
  %107 = load i32, ptr %106, align 8
  %108 = sext i32 %107 to i64
  %109 = getelementptr inbounds i8, ptr %104, i64 %108
  br label %119

110:                                              ; preds = %97
  %111 = load ptr, ptr %6, align 8
  %112 = getelementptr inbounds %struct._zend_op_array, ptr %111, i32 0, i32 30
  %113 = load ptr, ptr %112, align 8
  %114 = load ptr, ptr %8, align 8
  %115 = getelementptr inbounds %struct._zend_op, ptr %114, i32 0, i32 1
  %116 = load i32, ptr %115, align 8
  %117 = zext i32 %116 to i64
  %118 = getelementptr inbounds %struct._zval_struct, ptr %113, i64 %117
  br label %119

119:                                              ; preds = %110, %103
  %120 = phi ptr [ %109, %103 ], [ %118, %110 ]
  store ptr %120, ptr %13, align 8
  %121 = load ptr, ptr %10, align 8
  %122 = load ptr, ptr %13, align 8
  %123 = getelementptr inbounds %struct._zval_struct, ptr %122, i32 0, i32 0
  %124 = load ptr, ptr %123, align 8
  %125 = load ptr, ptr %6, align 8
  %126 = getelementptr inbounds %struct._zend_op_array, ptr %125, i32 0, i32 4
  %127 = load ptr, ptr %126, align 8
  %128 = call ptr @lookup_prop_info(ptr noundef %121, ptr noundef %124, ptr noundef %127)
  store ptr %128, ptr %9, align 8
  %129 = load ptr, ptr %9, align 8
  %130 = icmp ne ptr %129, null
  br i1 %130, label %131, label %138

131:                                              ; preds = %119
  %132 = load ptr, ptr %9, align 8
  %133 = getelementptr inbounds %struct._zend_property_info, ptr %132, i32 0, i32 1
  %134 = load i32, ptr %133, align 4
  %135 = and i32 %134, 16
  %136 = icmp ne i32 %135, 0
  br i1 %136, label %138, label %137

137:                                              ; preds = %131
  store ptr null, ptr %9, align 8
  br label %138

138:                                              ; preds = %137, %131, %119
  br label %139

139:                                              ; preds = %138, %94
  br label %140

140:                                              ; preds = %139, %4
  %141 = load ptr, ptr %9, align 8
  ret ptr %141
}