; Function Attrs: nounwind uwtable
define internal fastcc ptr @zend_fetch_static_prop_info(ptr noundef %0, ptr noundef %1, ptr nocapture noundef readonly %2) unnamed_addr #0 {
  %4 = getelementptr inbounds i8, ptr %2, i64 29
  %5 = load i8, ptr %4, align 1
  %6 = icmp eq i8 %5, 1
  br i1 %6, label %7, label %.thread

7:                                                ; preds = %3
  %8 = getelementptr inbounds i8, ptr %2, i64 30
  %9 = load i8, ptr %8, align 2
  switch i8 %9, label %.thread [
    i8 0, label %10
    i8 1, label %27
  ]

10:                                               ; preds = %7
  %11 = getelementptr inbounds i8, ptr %2, i64 12
  %12 = load i32, ptr %11, align 4
  %13 = and i32 %12, 15
  switch i32 %13, label %.thread [
    i32 1, label %14
    i32 3, label %14
    i32 2, label %17
  ]

14:                                               ; preds = %10, %10
  %15 = getelementptr inbounds i8, ptr %1, i64 16
  %16 = load ptr, ptr %15, align 8
  br label %48

17:                                               ; preds = %10
  %18 = getelementptr inbounds i8, ptr %1, i64 16
  %19 = load ptr, ptr %18, align 8
  %.not32 = icmp eq ptr %19, null
  br i1 %.not32, label %.thread, label %20

20:                                               ; preds = %17
  %21 = getelementptr inbounds i8, ptr %19, i64 28
  %22 = load i32, ptr %21, align 4
  %23 = and i32 %22, 8
  %.not33 = icmp eq i32 %23, 0
  br i1 %.not33, label %.thread, label %24

24:                                               ; preds = %20
  %25 = getelementptr inbounds i8, ptr %19, i64 16
  %26 = load ptr, ptr %25, align 8
  br label %48

27:                                               ; preds = %7
  %28 = getelementptr inbounds i8, ptr %1, i64 4
  %29 = load i32, ptr %28, align 4
  %30 = and i32 %29, 33554432
  %.not = icmp eq i32 %30, 0
  br i1 %.not, label %36, label %31

31:                                               ; preds = %27
  %32 = getelementptr inbounds i8, ptr %2, i64 12
  %33 = load i32, ptr %32, align 4
  %34 = sext i32 %33 to i64
  %35 = getelementptr inbounds i8, ptr %2, i64 %34
  br label %43

36:                                               ; preds = %27
  %37 = getelementptr inbounds i8, ptr %1, i64 176
  %38 = load ptr, ptr %37, align 8
  %39 = getelementptr inbounds i8, ptr %2, i64 12
  %40 = load i32, ptr %39, align 4
  %41 = zext i32 %40 to i64
  %42 = getelementptr inbounds %struct._zval_struct, ptr %38, i64 %41
  br label %43

43:                                               ; preds = %36, %31
  %44 = phi ptr [ %35, %31 ], [ %42, %36 ]
  %45 = getelementptr inbounds i8, ptr %44, i64 16
  %46 = load ptr, ptr %45, align 8
  %47 = tail call ptr @zend_optimizer_get_class_entry(ptr noundef %0, ptr noundef nonnull %1, ptr noundef %46) #19
  br label %48

48:                                               ; preds = %43, %14, %24
  %.028 = phi ptr [ %26, %24 ], [ %16, %14 ], [ %47, %43 ]
  %.not34 = icmp eq ptr %.028, null
  br i1 %.not34, label %.thread, label %49

49:                                               ; preds = %48
  %50 = getelementptr inbounds i8, ptr %1, i64 4
  %51 = load i32, ptr %50, align 4
  %52 = and i32 %51, 33554432
  %.not35 = icmp eq i32 %52, 0
  br i1 %.not35, label %58, label %53

53:                                               ; preds = %49
  %54 = getelementptr inbounds i8, ptr %2, i64 8
  %55 = load i32, ptr %54, align 8
  %56 = sext i32 %55 to i64
  %57 = getelementptr inbounds i8, ptr %2, i64 %56
  br label %65

58:                                               ; preds = %49
  %59 = getelementptr inbounds i8, ptr %1, i64 176
  %60 = load ptr, ptr %59, align 8
  %61 = getelementptr inbounds i8, ptr %2, i64 8
  %62 = load i32, ptr %61, align 8
  %63 = zext i32 %62 to i64
  %64 = getelementptr inbounds %struct._zval_struct, ptr %60, i64 %63
  br label %65

65:                                               ; preds = %58, %53
  %66 = phi ptr [ %57, %53 ], [ %64, %58 ]
  %67 = load ptr, ptr %66, align 8
  %68 = getelementptr inbounds i8, ptr %1, i64 16
  %69 = load ptr, ptr %68, align 8
  %70 = getelementptr inbounds i8, ptr %.028, i64 28
  %71 = load i32, ptr %70, align 4
  %72 = and i32 %71, 8
  %.not.i = icmp eq i32 %72, 0
  br i1 %.not.i, label %81, label %73

73:                                               ; preds = %65
  %.not30.i = icmp eq ptr %69, null
  br i1 %.not30.i, label %78, label %74

74:                                               ; preds = %73
  %75 = getelementptr inbounds i8, ptr %69, i64 28
  %76 = load i32, ptr %75, align 4
  %77 = and i32 %76, 8
  %.not31.i = icmp eq i32 %77, 0
  br i1 %.not31.i, label %81, label %78

78:                                               ; preds = %74, %73
  %79 = load ptr, ptr getelementptr inbounds (%struct._zend_executor_globals, ptr @executor_globals, i64 0, i32 18), align 8
  store ptr %69, ptr getelementptr inbounds (%struct._zend_executor_globals, ptr @executor_globals, i64 0, i32 18), align 8
  %80 = tail call ptr @zend_get_property_info(ptr noundef nonnull %.028, ptr noundef %67, i32 noundef 1) #19
  store ptr %79, ptr getelementptr inbounds (%struct._zend_executor_globals, ptr @executor_globals, i64 0, i32 18), align 8
  %magicptr.i = ptrtoint ptr %80 to i64
  switch i64 %magicptr.i, label %lookup_prop_info.exit.thread6 [
    i64 -1, label %.thread
    i64 0, label %.thread
  ]

81:                                               ; preds = %74, %65
  %82 = getelementptr inbounds i8, ptr %.028, i64 120
  %83 = tail call ptr @zend_hash_find(ptr noundef nonnull %82, ptr noundef %67) #19
  %.not32.i = icmp eq ptr %83, null
  br i1 %.not32.i, label %.thread, label %84

84:                                               ; preds = %81
  %85 = load ptr, ptr %83, align 8, !nonnull !5, !noundef !5
  %86 = getelementptr inbounds i8, ptr %85, i64 32
  %87 = load ptr, ptr %86, align 8
  %88 = icmp eq ptr %87, %69
  br i1 %88, label %lookup_prop_info.exit.thread6, label %89

89:                                               ; preds = %84
  %.not34.i = icmp eq ptr %69, null
  br i1 %.not34.i, label %90, label %.thread

90:                                               ; preds = %89
  %91 = getelementptr inbounds i8, ptr %85, i64 4
  %92 = load i32, ptr %91, align 4
  %93 = and i32 %92, 1
  %.not35.i = icmp eq i32 %93, 0
  br i1 %.not35.i, label %.thread, label %lookup_prop_info.exit.thread6

lookup_prop_info.exit.thread6:                    ; preds = %78, %84, %90
  %.026.i9 = phi ptr [ %85, %90 ], [ %85, %84 ], [ %80, %78 ]
  %94 = getelementptr inbounds i8, ptr %.026.i9, i64 4
  %95 = load i32, ptr %94, align 4
  %96 = and i32 %95, 16
  %.not37 = icmp eq i32 %96, 0
  %spec.store.select = select i1 %.not37, ptr null, ptr %.026.i9
  br label %.thread

.thread:                                          ; preds = %81, %89, %90, %78, %78, %7, %17, %20, %10, %lookup_prop_info.exit.thread6, %48, %3
  %.0 = phi ptr [ %spec.store.select, %lookup_prop_info.exit.thread6 ], [ null, %48 ], [ null, %3 ], [ null, %10 ], [ null, %20 ], [ null, %17 ], [ null, %7 ], [ null, %78 ], [ null, %78 ], [ null, %90 ], [ null, %89 ], [ null, %81 ]
  ret ptr %.0
}